(ikeras_frcnn.config
Config
p0
(dp1
S'use_vertical_flips'
p2
I00
sS'verbose'
p3
I01
sS'classifier_regr_std'
p4
(lp5
F8.0
aF8.0
aF4.0
aF4.0
asS'classifier_min_overlap'
p6
F0.1
sS'rot_90'
p7
I00
sS'class_mapping'
p8
(dp9
S'bad'
p10
I1
sS'good'
p11
I0
sS'none'
p12
I2
sS'bg'
p13
I3
ssS'use_horizontal_flips'
p14
I00
sS'rpn_max_overlap'
p15
F0.7
sS'network'
p16
S'resnet50'
p17
sS'img_channel_mean'
p18
(lp19
F103.939
aF116.779
aF123.68
asS'balanced_classes'
p20
I00
sS'anchor_box_ratios'
p21
(lp22
(lp23
I1
aI1
aa(lp24
F0.7071067811865475
aF1.414213562373095
aa(lp25
F1.414213562373095
aF0.7071067811865475
aasS'img_scaling_factor'
p26
F1.0
sS'rpn_stride'
p27
I16
sS'num_rois'
p28
I32
sS'base_net_weights'
p29
S'resnet50_weights_tf_dim_ordering_tf_kernels.h5'
p30
sS'anchor_box_scales'
p31
(lp32
I128
aI256
aI512
asS'rpn_min_overlap'
p33
F0.3
sS'model_path'
p34
S'./model_frcnn.hdf5'
p35
sS'classifier_max_overlap'
p36
F0.5
sS'std_scaling'
p37
F4.0
sS'im_size'
p38
I600
sb.